; Function Attrs: mustprogress uwtable
define dso_local void @_ZN5vcpkg10ParserBase9skip_lineEv(ptr noundef nonnull align 8 dereferenceable(176) %0) local_unnamed_addr #0 align 2 personality ptr @__gxx_personality_v0 {
  %2 = alloca %"struct.vcpkg::LineInfo", align 8
  %3 = load i32, ptr %0, align 8, !tbaa !15
  %.not4.i = icmp eq i32 %3, -1
  br i1 %.not4.i, label %_ZN5vcpkg10ParserBase11match_whileIZNS0_11match_untilIPFbDiEEENS_10StringViewET_EUlDiE_EES5_S6_.exit, label %.lr.ph.i

.lr.ph.i:                                         ; preds = %1
  %4 = getelementptr inbounds nuw i8, ptr %0, i64 64
  %5 = getelementptr inbounds nuw i8, ptr %0, i64 68
  %6 = getelementptr inbounds nuw i8, ptr %0, i64 32
  br label %7

7:                                                ; preds = %_ZN5vcpkg10ParserBase4nextEv.exit.i, %.lr.ph.i
  %8 = phi i32 [ %3, %.lr.ph.i ], [ %.0.i.i, %_ZN5vcpkg10ParserBase4nextEv.exit.i ]
  switch i32 %8, label %_ZNK5vcpkg7Unicode11Utf8DecoderdeEv.exit.i.i [
    i32 13, label %_ZN5vcpkg10ParserBase11match_whileIZNS0_11match_untilIPFbDiEEENS_10StringViewET_EUlDiE_EES5_S6_.exit
    i32 10, label %_ZN5vcpkg10ParserBase11match_whileIZNS0_11match_untilIPFbDiEEENS_10StringViewET_EUlDiE_EES5_S6_.exit
  ]

_ZNK5vcpkg7Unicode11Utf8DecoderdeEv.exit.i.i:     ; preds = %7
  %9 = load i32, ptr %4, align 8, !tbaa !71
  %10 = icmp eq i32 %9, 0
  %11 = load i32, ptr %5, align 4
  %12 = icmp eq i32 %11, 0
  %or.cond.i.i.i = select i1 %10, i1 %12, i1 false
  br i1 %or.cond.i.i.i, label %_ZN5vcpkgL14advance_rowcolEDiRiS0_.exit.i.i, label %13

13:                                               ; preds = %_ZNK5vcpkg7Unicode11Utf8DecoderdeEv.exit.i.i
  %brmerge.i.i.i = select i1 %10, i1 true, i1 %12
  br i1 %brmerge.i.i.i, label %14, label %16

14:                                               ; preds = %13
  call void @llvm.lifetime.start.p0(i64 16, ptr nonnull %2) #21
  store i32 18, ptr %2, align 8, !tbaa !29
  %15 = getelementptr inbounds nuw i8, ptr %2, i64 8
  store ptr @.str.2, ptr %15, align 8, !tbaa !32
  call void @_ZN5vcpkg6Checks11unreachableERKNS_8LineInfoE(ptr noundef nonnull align 8 dereferenceable(16) %2) #22
  unreachable

16:                                               ; preds = %13
  switch i32 %8, label %23 [
    i32 9, label %17
    i32 10, label %21
  ]

17:                                               ; preds = %16
  %18 = add nsw i32 %11, 7
  %19 = and i32 %18, -8
  %20 = or disjoint i32 %19, 1
  br label %.sink.split.i.i.i

21:                                               ; preds = %16
  %22 = add nsw i32 %9, 1
  store i32 %22, ptr %4, align 8, !tbaa !71
  br label %.sink.split.i.i.i

23:                                               ; preds = %16
  %24 = add nsw i32 %11, 1
  br label %.sink.split.i.i.i

.sink.split.i.i.i:                                ; preds = %23, %21, %17
  %.sink.i.i.i = phi i32 [ 1, %21 ], [ %24, %23 ], [ %20, %17 ]
  store i32 %.sink.i.i.i, ptr %5, align 4, !tbaa !71
  br label %_ZN5vcpkgL14advance_rowcolEDiRiS0_.exit.i.i

_ZN5vcpkgL14advance_rowcolEDiRiS0_.exit.i.i:      ; preds = %.sink.split.i.i.i, %_ZNK5vcpkg7Unicode11Utf8DecoderdeEv.exit.i.i
  %25 = tail call noundef nonnull align 8 dereferenceable(32) ptr @_ZN5vcpkg7Unicode11Utf8DecoderppEv(ptr noundef nonnull align 8 dereferenceable(176) %0) #21
  %26 = icmp eq i32 %8, 10
  br i1 %26, label %27, label %28

27:                                               ; preds = %_ZN5vcpkgL14advance_rowcolEDiRiS0_.exit.i.i
  tail call void @llvm.memcpy.p0.p0.i64(ptr noundef nonnull align 8 dereferenceable(32) %6, ptr noundef nonnull align 8 dereferenceable(176) %0, i64 32, i1 false), !tbaa.struct !7
  br label %28

28:                                               ; preds = %27, %_ZN5vcpkgL14advance_rowcolEDiRiS0_.exit.i.i
  %29 = load i32, ptr %0, align 8, !tbaa !15
  %30 = and i32 %29, -2048
  %31 = icmp eq i32 %30, 55296
  br i1 %31, label %32, label %_ZN5vcpkg10ParserBase4nextEv.exit.i

32:                                               ; preds = %28
  %33 = tail call noundef nonnull align 8 dereferenceable(32) ptr @_ZN5vcpkg7Unicode11Utf8DecoderaSENS1_8sentinelE(ptr noundef nonnull align 8 dereferenceable(176) %0) #21
  %.pre.i.i = load i32, ptr %0, align 8, !tbaa !15
  br label %_ZN5vcpkg10ParserBase4nextEv.exit.i

_ZN5vcpkg10ParserBase4nextEv.exit.i:              ; preds = %32, %28
  %.0.i.i = phi i32 [ %.pre.i.i, %32 ], [ %29, %28 ]
  %.not.i = icmp eq i32 %.0.i.i, -1
  br i1 %.not.i, label %_ZN5vcpkg10ParserBase11match_whileIZNS0_11match_untilIPFbDiEEENS_10StringViewET_EUlDiE_EES5_S6_.exit, label %7, !llvm.loop !74

_ZN5vcpkg10ParserBase11match_whileIZNS0_11match_untilIPFbDiEEENS_10StringViewET_EUlDiE_EES5_S6_.exit: ; preds = %_ZN5vcpkg10ParserBase4nextEv.exit.i, %7, %7, %1
  tail call void @_ZN5vcpkg10ParserBase12skip_newlineEv(ptr noundef nonnull align 8 dereferenceable(176) %0)
  ret void
}